target datalayout = "e-m:e-p270:32:32-p271:32:32-p272:64:64-i64:64-i128:128-f80:128-n8:16:32:64-S128"
target triple = "x86_64-pc-linux-gnu"

%struct.tb_tc = type { ptr, i64 }

@.str = private unnamed_addr constant [21 x i8] c"../qemu/tcg/region.c\00", align 1
@__func__.tb_tc_cmp = private unnamed_addr constant [10 x i8] c"tb_tc_cmp\00", align 1
@.str.11 = private unnamed_addr constant [19 x i8] c"a->size == b->size\00", align 1

; Function Attrs: nounwind sspstrong uwtable
define internal i32 @ptr_cmp_tb_tc(ptr noundef %0, ptr noundef %1) #0 {
  %3 = alloca i32, align 4
  %4 = alloca ptr, align 8
  %5 = alloca ptr, align 8
  store ptr %0, ptr %4, align 8
  store ptr %1, ptr %5, align 8
  %6 = load ptr, ptr %4, align 8
  %7 = load ptr, ptr %5, align 8
  %8 = getelementptr inbounds nuw %struct.tb_tc, ptr %7, i32 0, i32 0
  %9 = load ptr, ptr %8, align 8
  %10 = load ptr, ptr %5, align 8
  %11 = getelementptr inbounds nuw %struct.tb_tc, ptr %10, i32 0, i32 1
  %12 = load i64, ptr %11, align 8
  %13 = getelementptr inbounds nuw i8, ptr %9, i64 %12
  %14 = icmp uge ptr %6, %13
  br i1 %14, label %15, label %16

15:                                               ; preds = %2
  store i32 1, ptr %3, align 4
  br label %25

16:                                               ; preds = %2
  %17 = load ptr, ptr %4, align 8
  %18 = load ptr, ptr %5, align 8
  %19 = getelementptr inbounds nuw %struct.tb_tc, ptr %18, i32 0, i32 0
  %20 = load ptr, ptr %19, align 8
  %21 = icmp ult ptr %17, %20
  br i1 %21, label %22, label %23

22:                                               ; preds = %16
  store i32 -1, ptr %3, align 4
  br label %25

23:                                               ; preds = %16
  br label %24

24:                                               ; preds = %23
  store i32 0, ptr %3, align 4
  br label %25

25:                                               ; preds = %24, %22, %15
  %26 = load i32, ptr %3, align 4
  ret i32 %26
}

; Function Attrs: nounwind sspstrong uwtable
define internal i32 @tb_tc_cmp(ptr noundef %0, ptr noundef %1, ptr noundef %2) #0 {
  %4 = alloca i32, align 4
  %5 = alloca ptr, align 8
  %6 = alloca ptr, align 8
  %7 = alloca ptr, align 8
  %8 = alloca ptr, align 8
  %9 = alloca ptr, align 8
  %10 = alloca i32, align 4
  %11 = alloca i32, align 4
  %12 = alloca i32, align 4
  store ptr %0, ptr %5, align 8
  store ptr %1, ptr %6, align 8
  store ptr %2, ptr %7, align 8
  call void @llvm.lifetime.start.p0(i64 8, ptr %8) #11
  %13 = load ptr, ptr %5, align 8
  store ptr %13, ptr %8, align 8
  call void @llvm.lifetime.start.p0(i64 8, ptr %9) #11
  %14 = load ptr, ptr %6, align 8
  store ptr %14, ptr %9, align 8
  %15 = load ptr, ptr %8, align 8
  %16 = getelementptr inbounds nuw %struct.tb_tc, ptr %15, i32 0, i32 1
  %17 = load i64, ptr %16, align 8
  %18 = icmp ne i64 %17, 0
  br i1 %18, label %19, label %24

19:                                               ; preds = %3
  %20 = load ptr, ptr %9, align 8
  %21 = getelementptr inbounds nuw %struct.tb_tc, ptr %20, i32 0, i32 1
  %22 = load i64, ptr %21, align 8
  %23 = icmp ne i64 %22, 0
  br label %24

24:                                               ; preds = %19, %3
  %25 = phi i1 [ false, %3 ], [ %23, %19 ]
  %26 = xor i1 %25, true
  %27 = xor i1 %26, true
  %28 = zext i1 %27 to i32
  %29 = sext i32 %28 to i64
  %30 = call i64 @llvm.expect.i64(i64 %29, i64 1)
  %31 = icmp ne i64 %30, 0
  br i1 %31, label %32, label %73

32:                                               ; preds = %24
  %33 = load ptr, ptr %8, align 8
  %34 = getelementptr inbounds nuw %struct.tb_tc, ptr %33, i32 0, i32 0
  %35 = load ptr, ptr %34, align 8
  %36 = load ptr, ptr %9, align 8
  %37 = getelementptr inbounds nuw %struct.tb_tc, ptr %36, i32 0, i32 0
  %38 = load ptr, ptr %37, align 8
  %39 = icmp ugt ptr %35, %38
  br i1 %39, label %40, label %41

40:                                               ; preds = %32
  store i32 1, ptr %4, align 4
  store i32 1, ptr %10, align 4
  br label %96

41:                                               ; preds = %32
  %42 = load ptr, ptr %8, align 8
  %43 = getelementptr inbounds nuw %struct.tb_tc, ptr %42, i32 0, i32 0
  %44 = load ptr, ptr %43, align 8
  %45 = load ptr, ptr %9, align 8
  %46 = getelementptr inbounds nuw %struct.tb_tc, ptr %45, i32 0, i32 0
  %47 = load ptr, ptr %46, align 8
  %48 = icmp ult ptr %44, %47
  br i1 %48, label %49, label %50

49:                                               ; preds = %41
  store i32 -1, ptr %4, align 4
  store i32 1, ptr %10, align 4
  br label %96

50:                                               ; preds = %41
  br label %51

51:                                               ; preds = %50
  br label %52

52:                                               ; preds = %51
  call void @llvm.lifetime.start.p0(i64 4, ptr %11) #11
  store i32 0, ptr %11, align 4, !annotation !4
  %53 = load ptr, ptr %8, align 8
  %54 = getelementptr inbounds nuw %struct.tb_tc, ptr %53, i32 0, i32 1
  %55 = load i64, ptr %54, align 8
  %56 = load ptr, ptr %9, align 8
  %57 = getelementptr inbounds nuw %struct.tb_tc, ptr %56, i32 0, i32 1
  %58 = load i64, ptr %57, align 8
  %59 = icmp eq i64 %55, %58
  br i1 %59, label %60, label %61

60:                                               ; preds = %52
  store i32 1, ptr %11, align 4
  br label %62

61:                                               ; preds = %52
  store i32 0, ptr %11, align 4
  br label %62

62:                                               ; preds = %61, %60
  %63 = load i32, ptr %11, align 4
  store i32 %63, ptr %12, align 4
  call void @llvm.lifetime.end.p0(i64 4, ptr %11) #11
  %64 = load i32, ptr %12, align 4
  %65 = sext i32 %64 to i64
  %66 = call i64 @llvm.expect.i64(i64 %65, i64 1)
  %67 = icmp ne i64 %66, 0
  br i1 %67, label %68, label %69

68:                                               ; preds = %62
  br label %70

69:                                               ; preds = %62
  call void @g_assertion_message_expr(ptr noundef null, ptr noundef @.str, i32 noundef 160, ptr noundef @__func__.tb_tc_cmp, ptr noundef @.str.11) #12
  unreachable

70:                                               ; preds = %68
  br label %71

71:                                               ; preds = %70
  br label %72

72:                                               ; preds = %71
  store i32 0, ptr %4, align 4
  store i32 1, ptr %10, align 4
  br label %96

73:                                               ; preds = %24
  %74 = load ptr, ptr %8, align 8
  %75 = getelementptr inbounds nuw %struct.tb_tc, ptr %74, i32 0, i32 1
  %76 = load i64, ptr %75, align 8
  %77 = icmp eq i64 %76, 0
  %78 = xor i1 %77, true
  %79 = xor i1 %78, true
  %80 = zext i1 %79 to i32
  %81 = sext i32 %80 to i64
  %82 = call i64 @llvm.expect.i64(i64 %81, i64 1)
  %83 = icmp ne i64 %82, 0
  br i1 %83, label %84, label %90

84:                                               ; preds = %73
  %85 = load ptr, ptr %8, align 8
  %86 = getelementptr inbounds nuw %struct.tb_tc, ptr %85, i32 0, i32 0
  %87 = load ptr, ptr %86, align 8
  %88 = load ptr, ptr %9, align 8
  %89 = call i32 @ptr_cmp_tb_tc(ptr noundef %87, ptr noundef %88)
  store i32 %89, ptr %4, align 4
  store i32 1, ptr %10, align 4
  br label %96

90:                                               ; preds = %73
  %91 = load ptr, ptr %9, align 8
  %92 = getelementptr inbounds nuw %struct.tb_tc, ptr %91, i32 0, i32 0
  %93 = load ptr, ptr %92, align 8
  %94 = load ptr, ptr %8, align 8
  %95 = call i32 @ptr_cmp_tb_tc(ptr noundef %93, ptr noundef %94)
  store i32 %95, ptr %4, align 4
  store i32 1, ptr %10, align 4
  br label %96

96:                                               ; preds = %90, %84, %72, %49, %40
  call void @llvm.lifetime.end.p0(i64 8, ptr %9) #11
  call void @llvm.lifetime.end.p0(i64 8, ptr %8) #11
  %97 = load i32, ptr %4, align 4
  ret i32 %97
}