; Function Attrs: nounwind sspstrong uwtable
define internal range(i32 -1, 2) i32 @tb_tc_cmp(ptr noundef readonly captures(none) %0, ptr noundef readonly captures(none) %1, ptr readnone captures(none) %2) #1 {
  %4 = getelementptr inbounds nuw i8, ptr %0, i64 8
  %5 = load i64, ptr %4, align 8
  %.not = icmp eq i64 %5, 0
  br i1 %.not, label %17, label %6, !prof !14

6:                                                ; preds = %3
  %7 = getelementptr inbounds nuw i8, ptr %1, i64 8
  %8 = load i64, ptr %7, align 8
  %.not28 = icmp eq i64 %8, 0
  br i1 %.not28, label %.critedge, label %9, !prof !14

9:                                                ; preds = %6
  %10 = load ptr, ptr %0, align 8
  %11 = load ptr, ptr %1, align 8
  %12 = icmp ugt ptr %10, %11
  br i1 %12, label %25, label %13

13:                                               ; preds = %9
  %14 = icmp ult ptr %10, %11
  br i1 %14, label %25, label %15

15:                                               ; preds = %13
  %.not21 = icmp eq i64 %5, %8
  br i1 %.not21, label %25, label %16, !prof !17

16:                                               ; preds = %15
  tail call void @g_assertion_message_expr(ptr noundef null, ptr noundef nonnull @.str, i32 noundef 160, ptr noundef nonnull @__func__.tb_tc_cmp, ptr noundef nonnull @.str.11) #11
  unreachable

17:                                               ; preds = %3
  %18 = load ptr, ptr %0, align 8
  %.val = load ptr, ptr %1, align 8
  %19 = getelementptr i8, ptr %1, i64 8
  %.val22 = load i64, ptr %19, align 8
  %20 = getelementptr inbounds nuw i8, ptr %.val, i64 %.val22
  %.not.i = icmp ult ptr %18, %20
  %21 = icmp ult ptr %18, %.val
  %..i = sext i1 %21 to i32
  %.0.i = select i1 %.not.i, i32 %..i, i32 1
  br label %25

.critedge:                                        ; preds = %6
  %22 = load ptr, ptr %1, align 8
  %.val23 = load ptr, ptr %0, align 8
  %23 = getelementptr inbounds nuw i8, ptr %.val23, i64 %5
  %.not.i25 = icmp ult ptr %22, %23
  %24 = icmp ult ptr %22, %.val23
  %..i26 = sext i1 %24 to i32
  %.0.i27 = select i1 %.not.i25, i32 %..i26, i32 1
  br label %25

25:                                               ; preds = %15, %13, %9, %.critedge, %17
  %.0 = phi i32 [ %.0.i, %17 ], [ %.0.i27, %.critedge ], [ 1, %9 ], [ -1, %13 ], [ 0, %15 ]
  ret i32 %.0
}